; Function Attrs: nounwind uwtable
define ptr @l_Lean_log___at_Lean_Elab_Tactic_BVDecide_Frontend_Normalize_intToBitVecPass_replaceSize___spec__2(ptr noundef %0, i8 noundef zeroext %1, ptr readnone captures(none) %2, ptr noundef %3, ptr noundef %4, ptr noundef %5, ptr noundef %6, ptr noundef %7) local_unnamed_addr #1 {
  %9 = getelementptr inbounds nuw i8, ptr %5, i64 48
  %10 = load ptr, ptr %9, align 8, !tbaa !9
  %11 = ptrtoint ptr %10 to i64
  %12 = and i64 %11, 1
  %.not = icmp eq i64 %12, 0
  br i1 %.not, label %13, label %lean_inc.exit

13:                                               ; preds = %8
  %.val.i = load i32, ptr %10, align 4, !tbaa !4
  %14 = icmp sgt i32 %.val.i, 0
  br i1 %14, label %15, label %17, !prof !11

15:                                               ; preds = %13
  %16 = add nuw i32 %.val.i, 1
  store i32 %16, ptr %10, align 4, !tbaa !4
  br label %20

17:                                               ; preds = %13
  %.not.i13 = icmp eq i32 %.val.i, 0
  br i1 %.not.i13, label %20, label %18

18:                                               ; preds = %17
  tail call void @lean_inc_ref_cold(ptr noundef nonnull %10) #4
  br label %20

lean_inc.exit:                                    ; preds = %8
  %19 = tail call ptr @l_Lean_logAt___at_Lean_Elab_Tactic_BVDecide_Frontend_Normalize_intToBitVecPass_replaceSize___spec__3(ptr noundef %10, ptr noundef %0, i8 noundef zeroext %1, i8 noundef zeroext 0, ptr poison, ptr noundef %3, ptr noundef %4, ptr noundef nonnull %5, ptr noundef %6, ptr noundef %7)
  br label %lean_dec.exit

20:                                               ; preds = %18, %17, %15
  %21 = tail call ptr @l_Lean_logAt___at_Lean_Elab_Tactic_BVDecide_Frontend_Normalize_intToBitVecPass_replaceSize___spec__3(ptr noundef nonnull %10, ptr noundef %0, i8 noundef zeroext %1, i8 noundef zeroext 0, ptr poison, ptr noundef %3, ptr noundef %4, ptr noundef nonnull %5, ptr noundef %6, ptr noundef %7)
  %22 = load i32, ptr %10, align 4, !tbaa !4
  %23 = icmp sgt i32 %22, 1
  br i1 %23, label %24, label %26, !prof !11

24:                                               ; preds = %20
  %25 = add nsw i32 %22, -1
  store i32 %25, ptr %10, align 4, !tbaa !4
  br label %lean_dec.exit

26:                                               ; preds = %20
  %.not.i = icmp eq i32 %22, 0
  br i1 %.not.i, label %lean_dec.exit, label %27

27:                                               ; preds = %26
  tail call void @lean_dec_ref_cold(ptr noundef nonnull %10) #4
  br label %lean_dec.exit

lean_dec.exit:                                    ; preds = %27, %26, %24, %lean_inc.exit
  %28 = phi ptr [ %19, %lean_inc.exit ], [ %21, %24 ], [ %21, %26 ], [ %21, %27 ]
  ret ptr %28
}